; Function Attrs: mustprogress uwtable
define noundef i64 @_Z15fast_rv64e_sltiP11processor_t6insn_tm(ptr nocapture noundef %0, i64 %1, i64 noundef %2) local_unnamed_addr #5 personality ptr @__gxx_personality_v0 {
  %4 = lshr i64 %1, 15
  %5 = and i64 %4, 31
  %6 = icmp ugt i64 %5, 15
  br i1 %6, label %7, label %12

7:                                                ; preds = %3
  %8 = tail call ptr @__cxa_allocate_exception(i64 32) #16
  %9 = getelementptr inbounds i8, ptr %8, i64 8
  store i64 2, ptr %9, align 8
  %10 = getelementptr inbounds i8, ptr %8, i64 16
  store i8 0, ptr %10, align 8
  %11 = getelementptr inbounds i8, ptr %8, i64 24
  store i64 %1, ptr %11, align 8
  store ptr getelementptr inbounds ({ [12 x ptr] }, ptr @_ZTV24trap_illegal_instruction, i64 0, i32 0, i64 2), ptr %8, align 8
  tail call void @__cxa_throw(ptr nonnull %8, ptr nonnull @_ZTI24trap_illegal_instruction, ptr nonnull @_ZN24trap_illegal_instructionD2Ev) #17
  unreachable

12:                                               ; preds = %3
  %13 = getelementptr inbounds i8, ptr %0, i64 120
  %14 = lshr i64 %1, 7
  %15 = and i64 %14, 31
  %16 = icmp ugt i64 %15, 15
  br i1 %16, label %17, label %22

17:                                               ; preds = %12
  %18 = tail call ptr @__cxa_allocate_exception(i64 32) #16
  %19 = getelementptr inbounds i8, ptr %18, i64 8
  store i64 2, ptr %19, align 8
  %20 = getelementptr inbounds i8, ptr %18, i64 16
  store i8 0, ptr %20, align 8
  %21 = getelementptr inbounds i8, ptr %18, i64 24
  store i64 %1, ptr %21, align 8
  store ptr getelementptr inbounds ({ [12 x ptr] }, ptr @_ZTV24trap_illegal_instruction, i64 0, i32 0, i64 2), ptr %18, align 8
  tail call void @__cxa_throw(ptr nonnull %18, ptr nonnull @_ZTI24trap_illegal_instruction, ptr nonnull @_ZN24trap_illegal_instructionD2Ev) #17
  unreachable

22:                                               ; preds = %12
  %.not.i = icmp eq i64 %15, 0
  br i1 %.not.i, label %_ZN9regfile_tImLm32ELb1EE5writeEmm.exit, label %23

23:                                               ; preds = %22
  %24 = getelementptr inbounds [32 x i64], ptr %13, i64 0, i64 %5
  %25 = load i64, ptr %24, align 8
  %26 = shl i64 %1, 32
  %27 = ashr i64 %26, 52
  %28 = icmp slt i64 %25, %27
  %29 = zext i1 %28 to i64
  %30 = getelementptr inbounds [32 x i64], ptr %13, i64 0, i64 %15
  store i64 %29, ptr %30, align 8
  br label %_ZN9regfile_tImLm32ELb1EE5writeEmm.exit

_ZN9regfile_tImLm32ELb1EE5writeEmm.exit:          ; preds = %22, %23
  %31 = add i64 %2, 4
  ret i64 %31
}